; Function Attrs: mustprogress uwtable
define internal void @"_ZNSt17_Function_handlerIFviEZN12_GLOBAL__N_19ImplPosixC1ER9uv_loop_sE3$_0E9_M_invokeERKSt9_Any_dataOi"(ptr nocapture noundef nonnull readonly align 8 dereferenceable(16) %0, ptr nocapture noundef nonnull readonly align 4 dereferenceable(4) %1) #3 align 2 {
  %3 = alloca i32, align 4
  %.val = load ptr, ptr %0, align 8
  %.val2 = load i32, ptr %1, align 4
  %.not.i.i.i = icmp eq i32 %.val2, 0
  br i1 %.not.i.i.i, label %"_ZSt10__invoke_rIvRZN12_GLOBAL__N_19ImplPosixC1ER9uv_loop_sE3$_0JiEENSt9enable_ifIX16is_invocable_r_vIT_T0_DpT1_EES7_E4typeEOS8_DpOS9_.exit", label %4

4:                                                ; preds = %2
  %5 = getelementptr inbounds i8, ptr %.val, i64 104
  %6 = load i32, ptr %5, align 8
  %7 = icmp eq i32 %6, 0
  br i1 %7, label %"_ZSt10__invoke_rIvRZN12_GLOBAL__N_19ImplPosixC1ER9uv_loop_sE3$_0JiEENSt9enable_ifIX16is_invocable_r_vIT_T0_DpT1_EES7_E4typeEOS8_DpOS9_.exit", label %8

8:                                                ; preds = %4
  %9 = load ptr, ptr %.val, align 8
  %10 = getelementptr inbounds i8, ptr %9, i64 32
  %11 = load ptr, ptr %10, align 8
  tail call void %11(ptr noundef nonnull align 8 dereferenceable(178) %.val)
  %12 = load i32, ptr %5, align 8
  switch i32 %12, label %16 [
    i32 1, label %13
    i32 2, label %.sink.split.i.i.i.i
  ]

13:                                               ; preds = %8
  %14 = getelementptr inbounds i8, ptr %.val, i64 112
  tail call void @_ZN2cm19uv_handle_ptr_base_I9uv_pipe_sE5resetEv(ptr noundef nonnull align 8 dereferenceable(16) %14)
  br label %.sink.split.i.i.i.i

.sink.split.i.i.i.i:                              ; preds = %13, %8
  %.sink3.i.i.i.i = phi i64 [ 128, %13 ], [ 144, %8 ]
  %15 = getelementptr inbounds i8, ptr %.val, i64 %.sink3.i.i.i.i
  tail call void @_ZN2cm19uv_handle_ptr_base_I9uv_pipe_sE5resetEv(ptr noundef nonnull align 8 dereferenceable(16) %15)
  br label %16

16:                                               ; preds = %.sink.split.i.i.i.i, %8
  store i32 0, ptr %5, align 8
  %17 = getelementptr inbounds i8, ptr %.val, i64 80
  %18 = load ptr, ptr %17, align 8
  %.not.i.i.not.i.i.i.i.i = icmp eq ptr %18, null
  br i1 %.not.i.i.not.i.i.i.i.i, label %"_ZSt10__invoke_rIvRZN12_GLOBAL__N_19ImplPosixC1ER9uv_loop_sE3$_0JiEENSt9enable_ifIX16is_invocable_r_vIT_T0_DpT1_EES7_E4typeEOS8_DpOS9_.exit", label %_ZNKSt8functionIFviEEclEi.exit.i.i.i.i.i

_ZNKSt8functionIFviEEclEi.exit.i.i.i.i.i:         ; preds = %16
  %19 = getelementptr inbounds i8, ptr %.val, i64 64
  call void @llvm.lifetime.start.p0(i64 4, ptr nonnull %3)
  store i32 %.val2, ptr %3, align 4
  %20 = getelementptr inbounds i8, ptr %.val, i64 88
  %21 = load ptr, ptr %20, align 8
  call void %21(ptr noundef nonnull align 8 dereferenceable(16) %19, ptr noundef nonnull align 4 dereferenceable(4) %3)
  call void @llvm.lifetime.end.p0(i64 4, ptr nonnull %3)
  br label %"_ZSt10__invoke_rIvRZN12_GLOBAL__N_19ImplPosixC1ER9uv_loop_sE3$_0JiEENSt9enable_ifIX16is_invocable_r_vIT_T0_DpT1_EES7_E4typeEOS8_DpOS9_.exit"

"_ZSt10__invoke_rIvRZN12_GLOBAL__N_19ImplPosixC1ER9uv_loop_sE3$_0JiEENSt9enable_ifIX16is_invocable_r_vIT_T0_DpT1_EES7_E4typeEOS8_DpOS9_.exit": ; preds = %2, %4, %16, %_ZNKSt8functionIFviEEclEi.exit.i.i.i.i.i
  ret void
}